target datalayout = "e-m:e-p270:32:32-p271:32:32-p272:64:64-i64:64-i128:128-f80:128-n8:16:32:64-S128"
target triple = "x86_64-pc-linux-gnu"

; Function Attrs: null_pointer_is_valid sspstrong uwtable
define ptr @get_ascii_string(ptr noundef %0, ptr noundef %1, i32 noundef %2) #0 {
  %4 = alloca ptr, align 8
  %5 = alloca ptr, align 8
  %6 = alloca i32, align 4
  %7 = alloca ptr, align 8
  %8 = alloca ptr, align 8
  %9 = alloca i64, align 8
  %10 = alloca i8, align 1
  store ptr %0, ptr %4, align 8
  store ptr %1, ptr %5, align 8
  store i32 %2, ptr %6, align 4
  call void @llvm.lifetime.start.p0(i64 8, ptr %7) #8
  call void @llvm.lifetime.start.p0(i64 8, ptr %8) #8
  %11 = load ptr, ptr %5, align 8
  store ptr %11, ptr %8, align 8
  call void @llvm.lifetime.start.p0(i64 8, ptr %9) #8
  store i64 0, ptr %9, align 8
  %12 = load ptr, ptr %4, align 8
  %13 = load i32, ptr %6, align 4
  %14 = add i32 %13, 1
  %15 = sext i32 %14 to i64
  %16 = call noalias ptr @wmem_strbuf_new_sized(ptr noundef %12, i64 noundef %15)
  store ptr %16, ptr %7, align 8
  br label %17

17:                                               ; preds = %40, %3
  %18 = load i32, ptr %6, align 4
  %19 = icmp sgt i32 %18, 0
  br i1 %19, label %20, label %43

20:                                               ; preds = %17
  call void @llvm.lifetime.start.p0(i64 1, ptr %10) #8
  %21 = load ptr, ptr %5, align 8
  %22 = getelementptr i8, ptr %21, i32 1
  store ptr %22, ptr %5, align 8
  %23 = load i8, ptr %21, align 1
  store i8 %23, ptr %10, align 1
  %24 = load i8, ptr %10, align 1
  %25 = zext i8 %24 to i32
  %26 = icmp slt i32 %25, 128
  br i1 %26, label %27, label %30

27:                                               ; preds = %20
  %28 = load i64, ptr %9, align 8
  %29 = add i64 %28, 1
  store i64 %29, ptr %9, align 8
  br label %40

30:                                               ; preds = %20
  %31 = load i64, ptr %9, align 8
  %32 = icmp ne i64 %31, 0
  br i1 %32, label %33, label %37

33:                                               ; preds = %30
  %34 = load ptr, ptr %7, align 8
  %35 = load ptr, ptr %8, align 8
  %36 = load i64, ptr %9, align 8
  call void @wmem_strbuf_append_len(ptr noundef %34, ptr noundef %35, i64 noundef %36)
  store i64 0, ptr %9, align 8
  br label %37

37:                                               ; preds = %33, %30
  %38 = load ptr, ptr %5, align 8
  store ptr %38, ptr %8, align 8
  %39 = load ptr, ptr %7, align 8
  call void @wmem_strbuf_append_unichar(ptr noundef %39, i32 noundef 65533)
  br label %40

40:                                               ; preds = %37, %27
  %41 = load i32, ptr %6, align 4
  %42 = add i32 %41, -1
  store i32 %42, ptr %6, align 4
  call void @llvm.lifetime.end.p0(i64 1, ptr %10) #8
  br label %17, !llvm.loop !6

43:                                               ; preds = %17
  %44 = load i64, ptr %9, align 8
  %45 = icmp ne i64 %44, 0
  br i1 %45, label %46, label %50

46:                                               ; preds = %43
  %47 = load ptr, ptr %7, align 8
  %48 = load ptr, ptr %8, align 8
  %49 = load i64, ptr %9, align 8
  call void @wmem_strbuf_append_len(ptr noundef %47, ptr noundef %48, i64 noundef %49)
  br label %50

50:                                               ; preds = %46, %43
  %51 = load ptr, ptr %7, align 8
  %52 = call ptr @wmem_strbuf_finalize(ptr noundef %51)
  call void @llvm.lifetime.end.p0(i64 8, ptr %9) #8
  call void @llvm.lifetime.end.p0(i64 8, ptr %8) #8
  call void @llvm.lifetime.end.p0(i64 8, ptr %7) #8
  ret ptr %52
}