; Function Attrs: null_pointer_is_valid sspstrong uwtable
define ptr @get_ascii_string(ptr noundef %0, ptr noundef %1, i32 noundef %2) local_unnamed_addr #0 {
  %4 = add i32 %2, 1
  %5 = sext i32 %4 to i64
  %6 = tail call noalias ptr @wmem_strbuf_new_sized(ptr noundef %0, i64 noundef %5)
  %7 = icmp sgt i32 %2, 0
  br i1 %7, label %.lr.ph, label %._crit_edge.thread

.lr.ph:                                           ; preds = %3, %16
  %.026 = phi ptr [ %8, %16 ], [ %1, %3 ]
  %.01825 = phi i64 [ %.1, %16 ], [ 0, %3 ]
  %.01924 = phi ptr [ %.120, %16 ], [ %1, %3 ]
  %.02123 = phi i32 [ %17, %16 ], [ %2, %3 ]
  %8 = getelementptr i8, ptr %.026, i64 1
  %9 = load i8, ptr %.026, align 1
  %10 = icmp sgt i8 %9, -1
  br i1 %10, label %11, label %13

11:                                               ; preds = %.lr.ph
  %12 = add i64 %.01825, 1
  br label %16

13:                                               ; preds = %.lr.ph
  %.not22 = icmp eq i64 %.01825, 0
  br i1 %.not22, label %15, label %14

14:                                               ; preds = %13
  tail call void @wmem_strbuf_append_len(ptr noundef %6, ptr noundef %.01924, i64 noundef %.01825)
  br label %15

15:                                               ; preds = %14, %13
  tail call void @wmem_strbuf_append_unichar(ptr noundef %6, i32 noundef 65533)
  br label %16

16:                                               ; preds = %15, %11
  %.120 = phi ptr [ %.01924, %11 ], [ %8, %15 ]
  %.1 = phi i64 [ %12, %11 ], [ 0, %15 ]
  %17 = add nsw i32 %.02123, -1
  %18 = icmp sgt i32 %.02123, 1
  br i1 %18, label %.lr.ph, label %._crit_edge, !llvm.loop !6

._crit_edge:                                      ; preds = %16
  %.not = icmp eq i64 %.1, 0
  br i1 %.not, label %._crit_edge.thread, label %19

19:                                               ; preds = %._crit_edge
  tail call void @wmem_strbuf_append_len(ptr noundef %6, ptr noundef %.120, i64 noundef %.1)
  br label %._crit_edge.thread

._crit_edge.thread:                               ; preds = %3, %19, %._crit_edge
  %20 = tail call ptr @wmem_strbuf_finalize(ptr noundef %6)
  ret ptr %20
}